; ModuleID = 'source-C-CXX/11/439.cpp'
source_filename = "source-C-CXX/11/439.cpp"
target datalayout = "e-m:e-p270:32:32-p271:32:32-p272:64:64-i64:64-f80:128-n8:16:32:64-S128"
target triple = "x86_64-pc-linux-gnu"

%"class.std::ios_base::Init" = type { i8 }
%"class.std::basic_istream" = type { i32 (...)**, i64, %"class.std::basic_ios" }
%"class.std::basic_ios" = type { %"class.std::ios_base", %"class.std::basic_ostream"*, i8, i8, %"class.std::basic_streambuf"*, %"class.std::ctype"*, %"class.std::num_put"*, %"class.std::num_get"* }
%"class.std::ios_base" = type { i32 (...)**, i64, i64, i32, i32, i32, %"struct.std::ios_base::_Callback_list"*, %"struct.std::ios_base::_Words", [8 x %"struct.std::ios_base::_Words"], i32, %"struct.std::ios_base::_Words"*, %"class.std::locale" }
%"struct.std::ios_base::_Callback_list" = type { %"struct.std::ios_base::_Callback_list"*, void (i32, %"class.std::ios_base"*, i32)*, i32, i32 }
%"struct.std::ios_base::_Words" = type { i8*, i64 }
%"class.std::locale" = type { %"class.std::locale::_Impl"* }
%"class.std::locale::_Impl" = type { i32, %"class.std::locale::facet"**, i64, %"class.std::locale::facet"**, i8** }
%"class.std::locale::facet" = type <{ i32 (...)**, i32, [4 x i8] }>
%"class.std::basic_ostream" = type { i32 (...)**, %"class.std::basic_ios" }
%"class.std::basic_streambuf" = type { i32 (...)**, i8*, i8*, i8*, i8*, i8*, i8*, %"class.std::locale" }
%"class.std::ctype" = type <{ %"class.std::locale::facet.base", [4 x i8], %struct.__locale_struct*, i8, [7 x i8], i32*, i32*, i16*, i8, [256 x i8], [256 x i8], i8, [6 x i8] }>
%"class.std::locale::facet.base" = type <{ i32 (...)**, i32 }>
%struct.__locale_struct = type { [13 x %struct.__locale_data*], i16*, i32*, i32*, [13 x i8*] }
%struct.__locale_data = type opaque
%"class.std::num_put" = type { %"class.std::locale::facet.base", [4 x i8] }
%"class.std::num_get" = type { %"class.std::locale::facet.base", [4 x i8] }

@_ZStL8__ioinit = internal global %"class.std::ios_base::Init" zeroinitializer, align 1
@__dso_handle = external hidden global i8
@_ZSt3cin = external global %"class.std::basic_istream", align 8
@_ZSt4cout = external global %"class.std::basic_ostream", align 8
@llvm.global_ctors = appending global [1 x { i32, void ()*, i8* }] [{ i32, void ()*, i8* } { i32 65535, void ()* @_GLOBAL__sub_I_439.cpp, i8* null }]

declare void @_ZNSt8ios_base4InitC1Ev(%"class.std::ios_base::Init"* nonnull align 1 dereferenceable(1)) unnamed_addr #0

; Function Attrs: nounwind
declare void @_ZNSt8ios_base4InitD1Ev(%"class.std::ios_base::Init"* nonnull align 1 dereferenceable(1)) unnamed_addr #1

; Function Attrs: nofree nounwind
declare i32 @__cxa_atexit(void (i8*)*, i8*, i8*) local_unnamed_addr #2

; Function Attrs: mustprogress norecurse sspstrong uwtable
define dso_local i32 @main() local_unnamed_addr #3 {
  %1 = alloca [20 x i32], align 16
  %2 = bitcast [20 x i32]* %1 to i8*
  call void @llvm.lifetime.start.p0i8(i64 80, i8* nonnull %2) #8
  %3 = getelementptr inbounds [20 x i32], [20 x i32]* %1, i64 0, i64 0
  %4 = getelementptr inbounds [20 x i32], [20 x i32]* %1, i64 0, i64 1
  %5 = call nonnull align 8 dereferenceable(16) %"class.std::basic_istream"* @_ZNSirsERi(%"class.std::basic_istream"* nonnull align 8 dereferenceable(16) @_ZSt3cin, i32* nonnull align 4 dereferenceable(4) %3)
  %6 = bitcast %"class.std::basic_istream"* %5 to i8**
  %7 = load i8*, i8** %6, align 8, !tbaa !5
  %8 = getelementptr i8, i8* %7, i64 -24
  %9 = bitcast i8* %8 to i64*
  %10 = load i64, i64* %9, align 8
  %11 = bitcast %"class.std::basic_istream"* %5 to i8*
  %12 = add nsw i64 %10, 32
  %13 = getelementptr inbounds i8, i8* %11, i64 %12
  %14 = bitcast i8* %13 to i32*
  %15 = load i32, i32* %14, align 8, !tbaa !8
  %16 = and i32 %15, 5
  %17 = icmp eq i32 %16, 0
  %18 = load i32, i32* %3, align 16
  %19 = icmp ne i32 %18, -1
  %20 = select i1 %17, i1 %19, i1 false
  br i1 %20, label %21, label %184

21:                                               ; preds = %0, %164
  %22 = call nonnull align 8 dereferenceable(16) %"class.std::basic_istream"* @_ZNSirsERi(%"class.std::basic_istream"* nonnull align 8 dereferenceable(16) @_ZSt3cin, i32* nonnull align 4 dereferenceable(4) %4)
  %23 = bitcast %"class.std::basic_istream"* %22 to i8**
  %24 = load i8*, i8** %23, align 8, !tbaa !5
  %25 = getelementptr i8, i8* %24, i64 -24
  %26 = bitcast i8* %25 to i64*
  %27 = load i64, i64* %26, align 8
  %28 = bitcast %"class.std::basic_istream"* %22 to i8*
  %29 = add nsw i64 %27, 32
  %30 = getelementptr inbounds i8, i8* %28, i64 %29
  %31 = bitcast i8* %30 to i32*
  %32 = load i32, i32* %31, align 8, !tbaa !8
  %33 = and i32 %32, 5
  %34 = icmp eq i32 %33, 0
  br i1 %34, label %35, label %58

35:                                               ; preds = %21, %41
  %36 = phi i64 [ %42, %41 ], [ 1, %21 ]
  %37 = phi i32* [ %44, %41 ], [ %4, %21 ]
  %38 = phi i32 [ %43, %41 ], [ 0, %21 ]
  %39 = load i32, i32* %37, align 4, !tbaa !18
  %40 = icmp eq i32 %39, 0
  br i1 %40, label %58, label %41

41:                                               ; preds = %35
  %42 = add nuw i64 %36, 1
  %43 = add nuw nsw i32 %38, 1
  %44 = getelementptr inbounds [20 x i32], [20 x i32]* %1, i64 0, i64 %42
  %45 = call nonnull align 8 dereferenceable(16) %"class.std::basic_istream"* @_ZNSirsERi(%"class.std::basic_istream"* nonnull align 8 dereferenceable(16) @_ZSt3cin, i32* nonnull align 4 dereferenceable(4) %44)
  %46 = bitcast %"class.std::basic_istream"* %45 to i8**
  %47 = load i8*, i8** %46, align 8, !tbaa !5
  %48 = getelementptr i8, i8* %47, i64 -24
  %49 = bitcast i8* %48 to i64*
  %50 = load i64, i64* %49, align 8
  %51 = bitcast %"class.std::basic_istream"* %45 to i8*
  %52 = add nsw i64 %50, 32
  %53 = getelementptr inbounds i8, i8* %51, i64 %52
  %54 = bitcast i8* %53 to i32*
  %55 = load i32, i32* %54, align 8, !tbaa !8
  %56 = and i32 %55, 5
  %57 = icmp eq i32 %56, 0
  br i1 %57, label %35, label %58, !llvm.loop !19

58:                                               ; preds = %35, %41, %21
  %59 = phi i32 [ 0, %21 ], [ %43, %41 ], [ %38, %35 ]
  %60 = add nuw i32 %59, 1
  %61 = zext i32 %59 to i64
  %62 = zext i32 %60 to i64
  br label %67

63:                                               ; preds = %124, %117, %67
  %64 = phi i32 [ %70, %67 ], [ %119, %117 ], [ %134, %124 ]
  %65 = add nuw nsw i64 %69, 1
  %66 = icmp eq i64 %73, %62
  br i1 %66, label %137, label %67, !llvm.loop !21

67:                                               ; preds = %58, %63
  %68 = phi i64 [ 0, %58 ], [ %73, %63 ]
  %69 = phi i64 [ 1, %58 ], [ %65, %63 ]
  %70 = phi i32 [ 0, %58 ], [ %64, %63 ]
  %71 = xor i64 %68, -1
  %72 = add nsw i64 %71, %62
  %73 = add nuw nsw i64 %68, 1
  %74 = icmp ult i64 %68, %61
  br i1 %74, label %75, label %63

75:                                               ; preds = %67
  %76 = getelementptr inbounds [20 x i32], [20 x i32]* %1, i64 0, i64 %68
  %77 = load i32, i32* %76, align 4, !tbaa !18
  %78 = shl nsw i32 %77, 1
  %79 = icmp ult i64 %72, 8
  br i1 %79, label %121, label %80

80:                                               ; preds = %75
  %81 = and i64 %72, -8
  %82 = add i64 %69, %81
  %83 = insertelement <4 x i32> <i32 poison, i32 0, i32 0, i32 0>, i32 %70, i32 0
  %84 = insertelement <4 x i32> poison, i32 %77, i32 0
  %85 = shufflevector <4 x i32> %84, <4 x i32> poison, <4 x i32> zeroinitializer
  %86 = insertelement <4 x i32> poison, i32 %77, i32 0
  %87 = shufflevector <4 x i32> %86, <4 x i32> poison, <4 x i32> zeroinitializer
  %88 = insertelement <4 x i32> poison, i32 %78, i32 0
  %89 = shufflevector <4 x i32> %88, <4 x i32> poison, <4 x i32> zeroinitializer
  %90 = insertelement <4 x i32> poison, i32 %78, i32 0
  %91 = shufflevector <4 x i32> %90, <4 x i32> poison, <4 x i32> zeroinitializer
  br label %92

92:                                               ; preds = %92, %80
  %93 = phi i64 [ 0, %80 ], [ %115, %92 ]
  %94 = phi <4 x i32> [ %83, %80 ], [ %113, %92 ]
  %95 = phi <4 x i32> [ zeroinitializer, %80 ], [ %114, %92 ]
  %96 = add i64 %69, %93
  %97 = getelementptr inbounds [20 x i32], [20 x i32]* %1, i64 0, i64 %96
  %98 = bitcast i32* %97 to <4 x i32>*
  %99 = load <4 x i32>, <4 x i32>* %98, align 4, !tbaa !18
  %100 = getelementptr inbounds i32, i32* %97, i64 4
  %101 = bitcast i32* %100 to <4 x i32>*
  %102 = load <4 x i32>, <4 x i32>* %101, align 4, !tbaa !18
  %103 = shl nsw <4 x i32> %99, <i32 1, i32 1, i32 1, i32 1>
  %104 = shl nsw <4 x i32> %102, <i32 1, i32 1, i32 1, i32 1>
  %105 = icmp eq <4 x i32> %85, %103
  %106 = icmp eq <4 x i32> %87, %104
  %107 = icmp eq <4 x i32> %99, %89
  %108 = icmp eq <4 x i32> %102, %91
  %109 = select <4 x i1> %105, <4 x i1> <i1 true, i1 true, i1 true, i1 true>, <4 x i1> %107
  %110 = select <4 x i1> %106, <4 x i1> <i1 true, i1 true, i1 true, i1 true>, <4 x i1> %108
  %111 = zext <4 x i1> %109 to <4 x i32>
  %112 = zext <4 x i1> %110 to <4 x i32>
  %113 = add <4 x i32> %94, %111
  %114 = add <4 x i32> %95, %112
  %115 = add nuw i64 %93, 8
  %116 = icmp eq i64 %115, %81
  br i1 %116, label %117, label %92, !llvm.loop !22

117:                                              ; preds = %92
  %118 = add <4 x i32> %114, %113
  %119 = call i32 @llvm.vector.reduce.add.v4i32(<4 x i32> %118)
  %120 = icmp eq i64 %72, %81
  br i1 %120, label %63, label %121

121:                                              ; preds = %75, %117
  %122 = phi i64 [ %69, %75 ], [ %82, %117 ]
  %123 = phi i32 [ %70, %75 ], [ %119, %117 ]
  br label %124

124:                                              ; preds = %121, %124
  %125 = phi i64 [ %135, %124 ], [ %122, %121 ]
  %126 = phi i32 [ %134, %124 ], [ %123, %121 ]
  %127 = getelementptr inbounds [20 x i32], [20 x i32]* %1, i64 0, i64 %125
  %128 = load i32, i32* %127, align 4, !tbaa !18
  %129 = shl nsw i32 %128, 1
  %130 = icmp eq i32 %77, %129
  %131 = icmp eq i32 %128, %78
  %132 = select i1 %130, i1 true, i1 %131
  %133 = zext i1 %132 to i32
  %134 = add nsw i32 %126, %133
  %135 = add nuw nsw i64 %125, 1
  %136 = icmp eq i64 %135, %62
  br i1 %136, label %63, label %124, !llvm.loop !24

137:                                              ; preds = %63
  %138 = call nonnull align 8 dereferenceable(8) %"class.std::basic_ostream"* @_ZNSolsEi(%"class.std::basic_ostream"* nonnull align 8 dereferenceable(8) @_ZSt4cout, i32 %64)
  %139 = bitcast %"class.std::basic_ostream"* %138 to i8**
  %140 = load i8*, i8** %139, align 8, !tbaa !5
  %141 = getelementptr i8, i8* %140, i64 -24
  %142 = bitcast i8* %141 to i64*
  %143 = load i64, i64* %142, align 8
  %144 = bitcast %"class.std::basic_ostream"* %138 to i8*
  %145 = add nsw i64 %143, 240
  %146 = getelementptr inbounds i8, i8* %144, i64 %145
  %147 = bitcast i8* %146 to %"class.std::ctype"**
  %148 = load %"class.std::ctype"*, %"class.std::ctype"** %147, align 8, !tbaa !26
  %149 = icmp eq %"class.std::ctype"* %148, null
  br i1 %149, label %150, label %151

150:                                              ; preds = %137
  call void @_ZSt16__throw_bad_castv() #9
  unreachable

151:                                              ; preds = %137
  %152 = getelementptr inbounds %"class.std::ctype", %"class.std::ctype"* %148, i64 0, i32 8
  %153 = load i8, i8* %152, align 8, !tbaa !29
  %154 = icmp eq i8 %153, 0
  br i1 %154, label %158, label %155

155:                                              ; preds = %151
  %156 = getelementptr inbounds %"class.std::ctype", %"class.std::ctype"* %148, i64 0, i32 9, i64 10
  %157 = load i8, i8* %156, align 1, !tbaa !31
  br label %164

158:                                              ; preds = %151
  call void @_ZNKSt5ctypeIcE13_M_widen_initEv(%"class.std::ctype"* nonnull align 8 dereferenceable(570) %148)
  %159 = bitcast %"class.std::ctype"* %148 to i8 (%"class.std::ctype"*, i8)***
  %160 = load i8 (%"class.std::ctype"*, i8)**, i8 (%"class.std::ctype"*, i8)*** %159, align 8, !tbaa !5
  %161 = getelementptr inbounds i8 (%"class.std::ctype"*, i8)*, i8 (%"class.std::ctype"*, i8)** %160, i64 6
  %162 = load i8 (%"class.std::ctype"*, i8)*, i8 (%"class.std::ctype"*, i8)** %161, align 8
  %163 = call signext i8 %162(%"class.std::ctype"* nonnull align 8 dereferenceable(570) %148, i8 signext 10)
  br label %164

164:                                              ; preds = %155, %158
  %165 = phi i8 [ %157, %155 ], [ %163, %158 ]
  %166 = call nonnull align 8 dereferenceable(8) %"class.std::basic_ostream"* @_ZNSo3putEc(%"class.std::basic_ostream"* nonnull align 8 dereferenceable(8) %138, i8 signext %165)
  %167 = call nonnull align 8 dereferenceable(8) %"class.std::basic_ostream"* @_ZNSo5flushEv(%"class.std::basic_ostream"* nonnull align 8 dereferenceable(8) %166)
  %168 = call nonnull align 8 dereferenceable(16) %"class.std::basic_istream"* @_ZNSirsERi(%"class.std::basic_istream"* nonnull align 8 dereferenceable(16) @_ZSt3cin, i32* nonnull align 4 dereferenceable(4) %3)
  %169 = bitcast %"class.std::basic_istream"* %168 to i8**
  %170 = load i8*, i8** %169, align 8, !tbaa !5
  %171 = getelementptr i8, i8* %170, i64 -24
  %172 = bitcast i8* %171 to i64*
  %173 = load i64, i64* %172, align 8
  %174 = bitcast %"class.std::basic_istream"* %168 to i8*
  %175 = add nsw i64 %173, 32
  %176 = getelementptr inbounds i8, i8* %174, i64 %175
  %177 = bitcast i8* %176 to i32*
  %178 = load i32, i32* %177, align 8, !tbaa !8
  %179 = and i32 %178, 5
  %180 = icmp eq i32 %179, 0
  %181 = load i32, i32* %3, align 16
  %182 = icmp ne i32 %181, -1
  %183 = select i1 %180, i1 %182, i1 false
  br i1 %183, label %21, label %184, !llvm.loop !32

184:                                              ; preds = %164, %0
  call void @llvm.lifetime.end.p0i8(i64 80, i8* nonnull %2) #8
  ret i32 0
}

; Function Attrs: argmemonly mustprogress nofree nosync nounwind willreturn
declare void @llvm.lifetime.start.p0i8(i64 immarg, i8* nocapture) #4

declare nonnull align 8 dereferenceable(16) %"class.std::basic_istream"* @_ZNSirsERi(%"class.std::basic_istream"* nonnull align 8 dereferenceable(16), i32* nonnull align 4 dereferenceable(4)) local_unnamed_addr #0

declare nonnull align 8 dereferenceable(8) %"class.std::basic_ostream"* @_ZNSolsEi(%"class.std::basic_ostream"* nonnull align 8 dereferenceable(8), i32) local_unnamed_addr #0

; Function Attrs: argmemonly mustprogress nofree nosync nounwind willreturn
declare void @llvm.lifetime.end.p0i8(i64 immarg, i8* nocapture) #4

declare nonnull align 8 dereferenceable(8) %"class.std::basic_ostream"* @_ZNSo3putEc(%"class.std::basic_ostream"* nonnull align 8 dereferenceable(8), i8 signext) local_unnamed_addr #0

declare nonnull align 8 dereferenceable(8) %"class.std::basic_ostream"* @_ZNSo5flushEv(%"class.std::basic_ostream"* nonnull align 8 dereferenceable(8)) local_unnamed_addr #0

; Function Attrs: noreturn
declare void @_ZSt16__throw_bad_castv() local_unnamed_addr #5

declare void @_ZNKSt5ctypeIcE13_M_widen_initEv(%"class.std::ctype"* nonnull align 8 dereferenceable(570)) local_unnamed_addr #0

; Function Attrs: sspstrong uwtable
define internal void @_GLOBAL__sub_I_439.cpp() #6 section ".text.startup" {
  tail call void @_ZNSt8ios_base4InitC1Ev(%"class.std::ios_base::Init"* nonnull align 1 dereferenceable(1) @_ZStL8__ioinit)
  %1 = tail call i32 @__cxa_atexit(void (i8*)* bitcast (void (%"class.std::ios_base::Init"*)* @_ZNSt8ios_base4InitD1Ev to void (i8*)*), i8* getelementptr inbounds (%"class.std::ios_base::Init", %"class.std::ios_base::Init"* @_ZStL8__ioinit, i64 0, i32 0), i8* nonnull @__dso_handle) #8
  ret void
}

; Function Attrs: nofree nosync nounwind readnone willreturn
declare i32 @llvm.vector.reduce.add.v4i32(<4 x i32>) #7


!llvm.module.flags = !{!0, !1, !2, !3}
!llvm.ident = !{!4}

!0 = !{i32 1, !"wchar_size", i32 4}
!1 = !{i32 7, !"PIC Level", i32 2}
!2 = !{i32 7, !"PIE Level", i32 2}
!3 = !{i32 7, !"uwtable", i32 1}
!4 = !{!"clang version 13.0.0"}
!5 = !{!6, !6, i64 0}
!6 = !{!"vtable pointer", !7, i64 0}
!7 = !{!"Simple C++ TBAA"}
!8 = !{!9, !13, i64 32}
!9 = !{!"_ZTSSt8ios_base", !10, i64 8, !10, i64 16, !12, i64 24, !13, i64 28, !13, i64 32, !14, i64 40, !15, i64 48, !11, i64 64, !16, i64 192, !14, i64 200, !17, i64 208}
!10 = !{!"long", !11, i64 0}
!11 = !{!"omnipotent char", !7, i64 0}
!12 = !{!"_ZTSSt13_Ios_Fmtflags", !11, i64 0}
!13 = !{!"_ZTSSt12_Ios_Iostate", !11, i64 0}
!14 = !{!"any pointer", !11, i64 0}
!15 = !{!"_ZTSNSt8ios_base6_WordsE", !14, i64 0, !10, i64 8}
!16 = !{!"int", !11, i64 0}
!17 = !{!"_ZTSSt6locale", !14, i64 0}
!18 = !{!16, !16, i64 0}
!19 = distinct !{!19, !20}
!20 = !{!"llvm.loop.mustprogress"}
!21 = distinct !{!21, !20}
!22 = distinct !{!22, !20, !23}
!23 = !{!"llvm.loop.isvectorized", i32 1}
!24 = distinct !{!24, !20, !25, !23}
!25 = !{!"llvm.loop.unroll.runtime.disable"}
!26 = !{!27, !14, i64 240}
!27 = !{!"_ZTSSt9basic_iosIcSt11char_traitsIcEE", !14, i64 216, !11, i64 224, !28, i64 225, !14, i64 232, !14, i64 240, !14, i64 248, !14, i64 256}
!28 = !{!"bool", !11, i64 0}
!29 = !{!30, !11, i64 56}
!30 = !{!"_ZTSSt5ctypeIcE", !14, i64 16, !28, i64 24, !14, i64 32, !14, i64 40, !14, i64 48, !11, i64 56, !11, i64 57, !11, i64 313, !11, i64 569}
!31 = !{!11, !11, i64 0}
!32 = distinct !{!32, !20}
